target datalayout = "e-m:e-p270:32:32-p271:32:32-p272:64:64-i64:64-i128:128-f80:128-n8:16:32:64-S128"
target triple = "x86_64-pc-linux-gnu"

%struct.evp_md_ctx_st = type { ptr, ptr, ptr, i64, ptr, ptr, ptr, ptr, ptr }
%struct.asn1_string_st = type { i32, i32, ptr, i64 }

@.str = private unnamed_addr constant [31 x i8] c"../openssl/crypto/evp/digest.c\00", align 1
@__func__.evp_md_ctx_new_ex = private unnamed_addr constant [18 x i8] c"evp_md_ctx_new_ex\00", align 1

; Function Attrs: nounwind uwtable
define internal i32 @evp_md_ctx_reset_ex(ptr noundef %0, i32 noundef %1) #0 {
  %3 = alloca i32, align 4
  %4 = alloca ptr, align 8
  %5 = alloca i32, align 4
  store ptr %0, ptr %4, align 8, !tbaa !3
  store i32 %1, ptr %5, align 4, !tbaa !8
  %6 = load ptr, ptr %4, align 8, !tbaa !3
  %7 = icmp eq ptr %6, null
  br i1 %7, label %8, label %9

8:                                                ; preds = %2
  store i32 1, ptr %3, align 4
  br label %27

9:                                                ; preds = %2
  %10 = load ptr, ptr %4, align 8, !tbaa !3
  %11 = call i32 @EVP_MD_CTX_test_flags(ptr noundef %10, i32 noundef 1024)
  %12 = icmp ne i32 %11, 0
  br i1 %12, label %19, label %13

13:                                               ; preds = %9
  %14 = load ptr, ptr %4, align 8, !tbaa !3
  %15 = getelementptr inbounds nuw %struct.evp_md_ctx_st, ptr %14, i32 0, i32 5
  %16 = load ptr, ptr %15, align 8, !tbaa !30
  call void @EVP_PKEY_CTX_free(ptr noundef %16)
  %17 = load ptr, ptr %4, align 8, !tbaa !3
  %18 = getelementptr inbounds nuw %struct.evp_md_ctx_st, ptr %17, i32 0, i32 5
  store ptr null, ptr %18, align 8, !tbaa !30
  br label %19

19:                                               ; preds = %13, %9
  %20 = load ptr, ptr %4, align 8, !tbaa !3
  %21 = load i32, ptr %5, align 4, !tbaa !8
  call void @evp_md_ctx_clear_digest(ptr noundef %20, i32 noundef 0, i32 noundef %21)
  %22 = load i32, ptr %5, align 4, !tbaa !8
  %23 = icmp ne i32 %22, 0
  br i1 %23, label %26, label %24

24:                                               ; preds = %19
  %25 = load ptr, ptr %4, align 8, !tbaa !3
  call void @OPENSSL_cleanse(ptr noundef %25, i64 noundef 72)
  br label %26

26:                                               ; preds = %24, %19
  store i32 1, ptr %3, align 4
  br label %27

27:                                               ; preds = %26, %8
  %28 = load i32, ptr %3, align 4
  ret i32 %28
}

; Function Attrs: nounwind uwtable
define i32 @EVP_MD_CTX_reset(ptr noundef %0) #0 {
  %2 = alloca ptr, align 8
  store ptr %0, ptr %2, align 8, !tbaa !3
  %3 = load ptr, ptr %2, align 8, !tbaa !3
  %4 = call i32 @evp_md_ctx_reset_ex(ptr noundef %3, i32 noundef 0)
  ret i32 %4
}

; Function Attrs: nounwind uwtable
define void @EVP_MD_CTX_free(ptr noundef %0) #0 {
  %2 = alloca ptr, align 8
  store ptr %0, ptr %2, align 8, !tbaa !3
  %3 = load ptr, ptr %2, align 8, !tbaa !3
  %4 = icmp eq ptr %3, null
  br i1 %4, label %5, label %6

5:                                                ; preds = %1
  br label %10

6:                                                ; preds = %1
  %7 = load ptr, ptr %2, align 8, !tbaa !3
  %8 = call i32 @EVP_MD_CTX_reset(ptr noundef %7)
  %9 = load ptr, ptr %2, align 8, !tbaa !3
  call void @CRYPTO_free(ptr noundef %9, ptr noundef @.str, i32 noundef 140)
  br label %10

10:                                               ; preds = %6, %5
  ret void
}

; Function Attrs: nounwind uwtable
define ptr @EVP_MD_CTX_new() #0 {
  %1 = call noalias ptr @CRYPTO_zalloc(i64 noundef 72, ptr noundef @.str, i32 noundef 131)
  ret ptr %1
}

; Function Attrs: nounwind uwtable
define ptr @evp_md_ctx_new_ex(ptr noundef %0, ptr noundef %1, ptr noundef %2, ptr noundef %3) #0 {
  %5 = alloca ptr, align 8
  %6 = alloca ptr, align 8
  %7 = alloca ptr, align 8
  %8 = alloca ptr, align 8
  %9 = alloca ptr, align 8
  %10 = alloca ptr, align 8
  %11 = alloca ptr, align 8
  %12 = alloca i32, align 4
  store ptr %0, ptr %6, align 8, !tbaa !31
  store ptr %1, ptr %7, align 8, !tbaa !33
  store ptr %2, ptr %8, align 8, !tbaa !35
  store ptr %3, ptr %9, align 8, !tbaa !37
  call void @llvm.lifetime.start.p0(i64 8, ptr %10) #8
  call void @llvm.lifetime.start.p0(i64 8, ptr %11) #8
  store ptr null, ptr %11, align 8, !tbaa !38
  %13 = call ptr @EVP_MD_CTX_new()
  store ptr %13, ptr %10, align 8, !tbaa !3
  %14 = icmp eq ptr %13, null
  br i1 %14, label %21, label %15

15:                                               ; preds = %4
  %16 = load ptr, ptr %8, align 8, !tbaa !35
  %17 = load ptr, ptr %6, align 8, !tbaa !31
  %18 = load ptr, ptr %9, align 8, !tbaa !37
  %19 = call ptr @EVP_PKEY_CTX_new_from_pkey(ptr noundef %16, ptr noundef %17, ptr noundef %18)
  store ptr %19, ptr %11, align 8, !tbaa !38
  %20 = icmp eq ptr %19, null
  br i1 %20, label %21, label %22

21:                                               ; preds = %15, %4
  call void @ERR_new()
  call void @ERR_set_debug(ptr noundef @.str, i32 noundef 112, ptr noundef @__func__.evp_md_ctx_new_ex)
  call void (i32, i32, ptr, ...) @ERR_set_error(i32 noundef 13, i32 noundef 524294, ptr noundef null)
  br label %40

22:                                               ; preds = %15
  %23 = load ptr, ptr %7, align 8, !tbaa !33
  %24 = icmp ne ptr %23, null
  br i1 %24, label %25, label %36

25:                                               ; preds = %22
  %26 = load ptr, ptr %11, align 8, !tbaa !38
  %27 = load ptr, ptr %7, align 8, !tbaa !33
  %28 = getelementptr inbounds nuw %struct.asn1_string_st, ptr %27, i32 0, i32 2
  %29 = load ptr, ptr %28, align 8, !tbaa !39
  %30 = load ptr, ptr %7, align 8, !tbaa !33
  %31 = getelementptr inbounds nuw %struct.asn1_string_st, ptr %30, i32 0, i32 0
  %32 = load i32, ptr %31, align 8, !tbaa !41
  %33 = call i32 @EVP_PKEY_CTX_set1_id(ptr noundef %26, ptr noundef %29, i32 noundef %32)
  %34 = icmp sle i32 %33, 0
  br i1 %34, label %35, label %36

35:                                               ; preds = %25
  br label %40

36:                                               ; preds = %25, %22
  %37 = load ptr, ptr %10, align 8, !tbaa !3
  %38 = load ptr, ptr %11, align 8, !tbaa !38
  call void @EVP_MD_CTX_set_pkey_ctx(ptr noundef %37, ptr noundef %38)
  %39 = load ptr, ptr %10, align 8, !tbaa !3
  store ptr %39, ptr %5, align 8
  store i32 1, ptr %12, align 4
  br label %43

40:                                               ; preds = %35, %21
  %41 = load ptr, ptr %11, align 8, !tbaa !38
  call void @EVP_PKEY_CTX_free(ptr noundef %41)
  %42 = load ptr, ptr %10, align 8, !tbaa !3
  call void @EVP_MD_CTX_free(ptr noundef %42)
  store ptr null, ptr %5, align 8
  store i32 1, ptr %12, align 4
  br label %43

43:                                               ; preds = %40, %36
  call void @llvm.lifetime.end.p0(i64 8, ptr %11) #8
  call void @llvm.lifetime.end.p0(i64 8, ptr %10) #8
  %44 = load ptr, ptr %5, align 8
  ret ptr %44
}