; Function Attrs: nounwind uwtable
define ptr @evp_md_ctx_new_ex(ptr noundef %0, ptr noundef readonly captures(address_is_null) %1, ptr noundef %2, ptr noundef %3) local_unnamed_addr #0 {
  %5 = tail call noalias ptr @CRYPTO_zalloc(i64 noundef 72, ptr noundef nonnull @.str, i32 noundef 131) #8
  %6 = icmp eq ptr %5, null
  br i1 %6, label %EVP_MD_CTX_free.exit.critedge, label %7

7:                                                ; preds = %4
  %8 = tail call ptr @EVP_PKEY_CTX_new_from_pkey(ptr noundef %2, ptr noundef %0, ptr noundef %3) #8
  %9 = icmp eq ptr %8, null
  br i1 %9, label %.split, label %14

.split:                                           ; preds = %7
  tail call void @ERR_new() #8
  tail call void @ERR_set_debug(ptr noundef nonnull @.str, i32 noundef 112, ptr noundef nonnull @__func__.evp_md_ctx_new_ex) #8
  tail call void (i32, i32, ptr, ...) @ERR_set_error(i32 noundef 13, i32 noundef 524294, ptr noundef null) #8
  tail call void @EVP_PKEY_CTX_free(ptr noundef null) #8
  %10 = tail call i32 @EVP_MD_CTX_test_flags(ptr noundef nonnull %5, i32 noundef 1024) #8
  %.not.i.i.i = icmp eq i32 %10, 0
  br i1 %.not.i.i.i, label %11, label %EVP_MD_CTX_reset.exit.i

11:                                               ; preds = %.split
  %12 = getelementptr inbounds nuw i8, ptr %5, i64 40
  %13 = load ptr, ptr %12, align 8, !tbaa !26
  tail call void @EVP_PKEY_CTX_free(ptr noundef %13) #8
  store ptr null, ptr %12, align 8, !tbaa !26
  br label %EVP_MD_CTX_reset.exit.i

EVP_MD_CTX_reset.exit.i:                          ; preds = %11, %.split
  tail call void @evp_md_ctx_clear_digest(ptr noundef nonnull %5, i32 noundef 0, i32 noundef 0)
  tail call void @OPENSSL_cleanse(ptr noundef nonnull %5, i64 noundef 72) #8
  tail call void @CRYPTO_free(ptr noundef nonnull %5, ptr noundef nonnull @.str, i32 noundef 140) #8
  br label %EVP_MD_CTX_free.exit

14:                                               ; preds = %7
  %.not = icmp eq ptr %1, null
  br i1 %.not, label %26, label %15

15:                                               ; preds = %14
  %16 = getelementptr inbounds nuw i8, ptr %1, i64 8
  %17 = load ptr, ptr %16, align 8, !tbaa !27
  %18 = load i32, ptr %1, align 8, !tbaa !29
  %19 = tail call i32 @EVP_PKEY_CTX_set1_id(ptr noundef nonnull %8, ptr noundef %17, i32 noundef %18) #8
  %20 = icmp slt i32 %19, 1
  br i1 %20, label %21, label %26

21:                                               ; preds = %15
  tail call void @EVP_PKEY_CTX_free(ptr noundef nonnull %8) #8
  %22 = tail call i32 @EVP_MD_CTX_test_flags(ptr noundef nonnull %5, i32 noundef 1024) #8
  %.not.i.i.i18 = icmp eq i32 %22, 0
  br i1 %.not.i.i.i18, label %23, label %EVP_MD_CTX_free.exit20

23:                                               ; preds = %21
  %24 = getelementptr inbounds nuw i8, ptr %5, i64 40
  %25 = load ptr, ptr %24, align 8, !tbaa !26
  tail call void @EVP_PKEY_CTX_free(ptr noundef %25) #8
  store ptr null, ptr %24, align 8, !tbaa !26
  br label %EVP_MD_CTX_free.exit20

EVP_MD_CTX_free.exit20:                           ; preds = %21, %23
  tail call void @evp_md_ctx_clear_digest(ptr noundef nonnull %5, i32 noundef 0, i32 noundef 0)
  tail call void @OPENSSL_cleanse(ptr noundef nonnull %5, i64 noundef 72) #8
  tail call void @CRYPTO_free(ptr noundef nonnull %5, ptr noundef nonnull @.str, i32 noundef 140) #8
  br label %EVP_MD_CTX_free.exit

26:                                               ; preds = %15, %14
  tail call void @EVP_MD_CTX_set_pkey_ctx(ptr noundef nonnull %5, ptr noundef nonnull %8) #8
  br label %EVP_MD_CTX_free.exit

EVP_MD_CTX_free.exit.critedge:                    ; preds = %4
  tail call void @ERR_new() #8
  tail call void @ERR_set_debug(ptr noundef nonnull @.str, i32 noundef 112, ptr noundef nonnull @__func__.evp_md_ctx_new_ex) #8
  tail call void (i32, i32, ptr, ...) @ERR_set_error(i32 noundef 13, i32 noundef 524294, ptr noundef null) #8
  tail call void @EVP_PKEY_CTX_free(ptr noundef null) #8
  br label %EVP_MD_CTX_free.exit

EVP_MD_CTX_free.exit:                             ; preds = %EVP_MD_CTX_free.exit.critedge, %EVP_MD_CTX_reset.exit.i, %EVP_MD_CTX_free.exit20, %26
  %.013 = phi ptr [ %5, %26 ], [ null, %EVP_MD_CTX_free.exit20 ], [ null, %EVP_MD_CTX_reset.exit.i ], [ null, %EVP_MD_CTX_free.exit.critedge ]
  ret ptr %.013
}